#include <math.h>
#include <stdio.h>
#include <stdlib.h>
#include <string.h>

int main()
{
    double a[102],h,pfh,*p;
    int k,n,i;
    scanf("%d",&k);
    while(k--)
    {
        scanf("%d",&n);
        p=a;
        for(i=0;i<n;i++)
            scanf("%lf",p++);
        p=a;
        h=0;pfh=0;
        for(i=0;i<n;i++)
        {
            pfh=pfh+pow(*p,2);
            h=h+*p;
            p++;
        }
        printf("%.5lf\n",sqrt(pfh/n-pow(h/n,2)));
    }
}
