; ModuleID = '38/1573.c'
source_filename = "38/1573.c"
target datalayout = "e-m:e-p270:32:32-p271:32:32-p272:64:64-i64:64-f80:128-n8:16:32:64-S128"
target triple = "x86_64-pc-linux-gnu"

@.str = private unnamed_addr constant [3 x i8] c"%d\00", align 1
@.str.1 = private unnamed_addr constant [4 x i8] c"%lf\00", align 1
@.str.2 = private unnamed_addr constant [7 x i8] c"%.5lf\0A\00", align 1

; Function Attrs: noinline nounwind uwtable
define dso_local i32 @main() #0 {
  %1 = alloca i32, align 4
  %2 = alloca [102 x double], align 16
  %3 = alloca double, align 8
  %4 = alloca double, align 8
  %5 = alloca double*, align 8
  %6 = alloca i32, align 4
  %7 = alloca i32, align 4
  %8 = alloca i32, align 4
  store i32 0, i32* %1, align 4
  %9 = call i32 (i8*, ...) @__isoc99_scanf(i8* getelementptr inbounds ([3 x i8], [3 x i8]* @.str, i64 0, i64 0), i32* %6)
  br label %10

10:                                               ; preds = %49, %0
  %11 = load i32, i32* %6, align 4
  %12 = add nsw i32 %11, -1
  store i32 %12, i32* %6, align 4
  %13 = icmp ne i32 %11, 0
  br i1 %13, label %14, label %62

14:                                               ; preds = %10
  %15 = call i32 (i8*, ...) @__isoc99_scanf(i8* getelementptr inbounds ([3 x i8], [3 x i8]* @.str, i64 0, i64 0), i32* %7)
  %16 = getelementptr inbounds [102 x double], [102 x double]* %2, i64 0, i64 0
  store double* %16, double** %5, align 8
  store i32 0, i32* %8, align 4
  br label %17

17:                                               ; preds = %25, %14
  %18 = load i32, i32* %8, align 4
  %19 = load i32, i32* %7, align 4
  %20 = icmp slt i32 %18, %19
  br i1 %20, label %21, label %28

21:                                               ; preds = %17
  %22 = load double*, double** %5, align 8
  %23 = getelementptr inbounds double, double* %22, i32 1
  store double* %23, double** %5, align 8
  %24 = call i32 (i8*, ...) @__isoc99_scanf(i8* getelementptr inbounds ([4 x i8], [4 x i8]* @.str.1, i64 0, i64 0), double* %22)
  br label %25

25:                                               ; preds = %21
  %26 = load i32, i32* %8, align 4
  %27 = add nsw i32 %26, 1
  store i32 %27, i32* %8, align 4
  br label %17

28:                                               ; preds = %17
  %29 = getelementptr inbounds [102 x double], [102 x double]* %2, i64 0, i64 0
  store double* %29, double** %5, align 8
  store double 0.000000e+00, double* %3, align 8
  store double 0.000000e+00, double* %4, align 8
  store i32 0, i32* %8, align 4
  br label %30

30:                                               ; preds = %46, %28
  %31 = load i32, i32* %8, align 4
  %32 = load i32, i32* %7, align 4
  %33 = icmp slt i32 %31, %32
  br i1 %33, label %34, label %49

34:                                               ; preds = %30
  %35 = load double, double* %4, align 8
  %36 = load double*, double** %5, align 8
  %37 = load double, double* %36, align 8
  %38 = call double @pow(double %37, double 2.000000e+00) #3
  %39 = fadd double %35, %38
  store double %39, double* %4, align 8
  %40 = load double, double* %3, align 8
  %41 = load double*, double** %5, align 8
  %42 = load double, double* %41, align 8
  %43 = fadd double %40, %42
  store double %43, double* %3, align 8
  %44 = load double*, double** %5, align 8
  %45 = getelementptr inbounds double, double* %44, i32 1
  store double* %45, double** %5, align 8
  br label %46

46:                                               ; preds = %34
  %47 = load i32, i32* %8, align 4
  %48 = add nsw i32 %47, 1
  store i32 %48, i32* %8, align 4
  br label %30

49:                                               ; preds = %30
  %50 = load double, double* %4, align 8
  %51 = load i32, i32* %7, align 4
  %52 = sitofp i32 %51 to double
  %53 = fdiv double %50, %52
  %54 = load double, double* %3, align 8
  %55 = load i32, i32* %7, align 4
  %56 = sitofp i32 %55 to double
  %57 = fdiv double %54, %56
  %58 = call double @pow(double %57, double 2.000000e+00) #3
  %59 = fsub double %53, %58
  %60 = call double @sqrt(double %59) #3
  %61 = call i32 (i8*, ...) @printf(i8* getelementptr inbounds ([7 x i8], [7 x i8]* @.str.2, i64 0, i64 0), double %60)
  br label %10

62:                                               ; preds = %10
  %63 = load i32, i32* %1, align 4
  ret i32 %63
}

declare dso_local i32 @__isoc99_scanf(i8*, ...) #1

; Function Attrs: nounwind
declare dso_local double @pow(double, double) #2

declare dso_local i32 @printf(i8*, ...) #1

; Function Attrs: nounwind
declare dso_local double @sqrt(double) #2


!llvm.module.flags = !{!0}
!llvm.ident = !{!1}

!0 = !{i32 1, !"wchar_size", i32 4}
!1 = !{!"clang version 10.0.0-4ubuntu1 "}
